target datalayout = "e-m:e-p270:32:32-p271:32:32-p272:64:64-i64:64-i128:128-f80:128-n8:16:32:64-S128"
target triple = "x86_64-pc-linux-gnu"

%"class.pbrt::ColorEncoding" = type { %"class.pbrt::TaggedPointer" }
%"class.pbrt::TaggedPointer" = type { i64 }
%"class.pbrt::Point2" = type { %"class.pbrt::Tuple2" }
%"class.pbrt::Tuple2" = type { i32, i32 }
%"class.pbrt::Image" = type { i32, %"class.pbrt::Point2", %"class.pstd::vector", %"class.pbrt::ColorEncoding", %"class.pstd::vector.28", %"class.pstd::vector.30", %"class.pstd::vector.32" }
%"class.pstd::vector" = type { %"class.pstd::pmr::polymorphic_allocator.27", ptr, i64, i64 }
%"class.pstd::pmr::polymorphic_allocator.27" = type { ptr }
%"class.pstd::vector.28" = type { %"class.pstd::pmr::polymorphic_allocator.29", ptr, i64, i64 }
%"class.pstd::pmr::polymorphic_allocator.29" = type { ptr }
%"class.pstd::vector.30" = type { %"class.pstd::pmr::polymorphic_allocator.31", ptr, i64, i64 }
%"class.pstd::pmr::polymorphic_allocator.31" = type { ptr }
%"class.pstd::vector.32" = type { %"class.pstd::pmr::polymorphic_allocator", ptr, i64, i64 }
%"class.pstd::pmr::polymorphic_allocator" = type { ptr }
%"class.pbrt::Half" = type { i16 }

@.str.5 = private unnamed_addr constant [117 x i8] c"generated/home/dtcxzyw/WorkSpace/Projects/compilers/llvm-opt-benchmark/bench/pbrt-v4/pbrt-v4/src/pbrt/util/image.cpp\00", align 1
@.str.40 = private unnamed_addr constant [18 x i8] c"unexpected format\00", align 1

; Function Attrs: mustprogress nounwind uwtable
define linkonce_odr dso_local noundef i64 @_ZNK4pstd6vectorINSt7__cxx1112basic_stringIcSt11char_traitsIcESaIcEEENS_3pmr21polymorphic_allocatorIS6_EEE4sizeEv(ptr noundef nonnull align 8 dereferenceable(32) %0) #7 comdat align 2 {
  %2 = alloca ptr, align 8
  store ptr %0, ptr %2, align 8, !tbaa !162
  %3 = load ptr, ptr %2, align 8
  %4 = getelementptr inbounds nuw %"class.pstd::vector", ptr %3, i32 0, i32 3
  %5 = load i64, ptr %4, align 8, !tbaa !223
  ret i64 %5
}

; Function Attrs: mustprogress nounwind uwtable
define linkonce_odr dso_local void @_ZN4pbrt6Tuple2INS_6Point2EiEC2Eii(ptr noundef nonnull align 4 dereferenceable(8) %0, i32 noundef %1, i32 noundef %2) unnamed_addr #7 comdat align 2 {
  %4 = alloca ptr, align 8
  %5 = alloca i32, align 4
  %6 = alloca i32, align 4
  store ptr %0, ptr %4, align 8, !tbaa !164
  store i32 %1, ptr %5, align 4, !tbaa !22
  store i32 %2, ptr %6, align 4, !tbaa !22
  %7 = load ptr, ptr %4, align 8
  %8 = getelementptr inbounds nuw %"class.pbrt::Tuple2", ptr %7, i32 0, i32 0
  %9 = load i32, ptr %5, align 4, !tbaa !22
  store i32 %9, ptr %8, align 4, !tbaa !87
  %10 = getelementptr inbounds nuw %"class.pbrt::Tuple2", ptr %7, i32 0, i32 1
  %11 = load i32, ptr %6, align 4, !tbaa !22
  store i32 %11, ptr %10, align 4, !tbaa !86
  br label %12

12:                                               ; preds = %3
  br label %13

13:                                               ; preds = %12
  ret void
}

; Function Attrs: inlinehint mustprogress nounwind uwtable
define linkonce_odr dso_local void @_ZN4pstd4swapIfEEvRT_S2_(ptr noundef nonnull align 4 dereferenceable(4) %0, ptr noundef nonnull align 4 dereferenceable(4) %1) #12 comdat {
  %3 = alloca ptr, align 8
  %4 = alloca ptr, align 8
  %5 = alloca float, align 4
  store ptr %0, ptr %3, align 8, !tbaa !107
  store ptr %1, ptr %4, align 8, !tbaa !107
  call void @llvm.lifetime.start.p0(i64 4, ptr %5) #5
  %6 = load ptr, ptr %3, align 8, !tbaa !107
  %7 = load float, ptr %6, align 4, !tbaa !9
  store float %7, ptr %5, align 4, !tbaa !9
  %8 = load ptr, ptr %4, align 8, !tbaa !107
  %9 = load float, ptr %8, align 4, !tbaa !9
  %10 = load ptr, ptr %3, align 8, !tbaa !107
  store float %9, ptr %10, align 4, !tbaa !9
  %11 = load float, ptr %5, align 4, !tbaa !9
  %12 = load ptr, ptr %4, align 8, !tbaa !107
  store float %11, ptr %12, align 4, !tbaa !9
  call void @llvm.lifetime.end.p0(i64 4, ptr %5) #5
  ret void
}

; Function Attrs: mustprogress nounwind uwtable
define linkonce_odr dso_local noundef nonnull align 4 dereferenceable(4) ptr @_ZN4pstd6vectorIfNS_3pmr21polymorphic_allocatorIfEEEixEm(ptr noundef nonnull align 8 dereferenceable(32) %0, i64 noundef %1) #7 comdat align 2 {
  %3 = alloca ptr, align 8
  %4 = alloca i64, align 8
  store ptr %0, ptr %3, align 8, !tbaa !207
  store i64 %1, ptr %4, align 8, !tbaa !114
  %5 = load ptr, ptr %3, align 8
  br label %6

6:                                                ; preds = %2
  br label %7

7:                                                ; preds = %6
  %8 = getelementptr inbounds nuw %"class.pstd::vector.32", ptr %5, i32 0, i32 1
  %9 = load ptr, ptr %8, align 8, !tbaa !209
  %10 = load i64, ptr %4, align 8, !tbaa !114
  %11 = getelementptr inbounds nuw float, ptr %9, i64 %10
  ret ptr %11
}

; Function Attrs: inlinehint mustprogress nounwind uwtable
define linkonce_odr dso_local noundef zeroext i1 @_ZN4pbrt7Is32BitENS_11PixelFormatE(i32 noundef %0) #12 comdat {
  %2 = alloca i32, align 4
  store i32 %0, ptr %2, align 4, !tbaa !31
  %3 = load i32, ptr %2, align 4, !tbaa !31
  %4 = icmp eq i32 %3, 2
  ret i1 %4
}

; Function Attrs: inlinehint mustprogress nounwind uwtable
define linkonce_odr dso_local void @_ZN4pstd4swapIN4pbrt4HalfEEEvRT_S4_(ptr noundef nonnull align 2 dereferenceable(2) %0, ptr noundef nonnull align 2 dereferenceable(2) %1) #12 comdat {
  %3 = alloca ptr, align 8
  %4 = alloca ptr, align 8
  %5 = alloca %"class.pbrt::Half", align 2
  store ptr %0, ptr %3, align 8, !tbaa !281
  store ptr %1, ptr %4, align 8, !tbaa !281
  call void @llvm.lifetime.start.p0(i64 2, ptr %5) #5
  %6 = load ptr, ptr %3, align 8, !tbaa !281
  call void @llvm.memcpy.p0.p0.i64(ptr align 2 %5, ptr align 2 %6, i64 2, i1 false), !tbaa.struct !291
  %7 = load ptr, ptr %4, align 8, !tbaa !281
  %8 = load ptr, ptr %3, align 8, !tbaa !281
  call void @llvm.memcpy.p0.p0.i64(ptr align 2 %8, ptr align 2 %7, i64 2, i1 false), !tbaa.struct !291
  %9 = load ptr, ptr %4, align 8, !tbaa !281
  call void @llvm.memcpy.p0.p0.i64(ptr align 2 %9, ptr align 2 %5, i64 2, i1 false), !tbaa.struct !291
  call void @llvm.lifetime.end.p0(i64 2, ptr %5) #5
  ret void
}

; Function Attrs: mustprogress nounwind uwtable
define linkonce_odr dso_local noundef nonnull align 2 dereferenceable(2) ptr @_ZN4pstd6vectorIN4pbrt4HalfENS_3pmr21polymorphic_allocatorIS2_EEEixEm(ptr noundef nonnull align 8 dereferenceable(32) %0, i64 noundef %1) #7 comdat align 2 {
  %3 = alloca ptr, align 8
  %4 = alloca i64, align 8
  store ptr %0, ptr %3, align 8, !tbaa !236
  store i64 %1, ptr %4, align 8, !tbaa !114
  %5 = load ptr, ptr %3, align 8
  br label %6

6:                                                ; preds = %2
  br label %7

7:                                                ; preds = %6
  %8 = getelementptr inbounds nuw %"class.pstd::vector.30", ptr %5, i32 0, i32 1
  %9 = load ptr, ptr %8, align 8, !tbaa !238
  %10 = load i64, ptr %4, align 8, !tbaa !114
  %11 = getelementptr inbounds nuw %"class.pbrt::Half", ptr %9, i64 %10
  ret ptr %11
}

; Function Attrs: inlinehint mustprogress nounwind uwtable
define linkonce_odr dso_local noundef zeroext i1 @_ZN4pbrt7Is16BitENS_11PixelFormatE(i32 noundef %0) #12 comdat {
  %2 = alloca i32, align 4
  store i32 %0, ptr %2, align 4, !tbaa !31
  %3 = load i32, ptr %2, align 4, !tbaa !31
  %4 = icmp eq i32 %3, 1
  ret i1 %4
}

; Function Attrs: inlinehint mustprogress nounwind uwtable
define linkonce_odr dso_local void @_ZN4pstd4swapIhEEvRT_S2_(ptr noundef nonnull align 1 dereferenceable(1) %0, ptr noundef nonnull align 1 dereferenceable(1) %1) #12 comdat {
  %3 = alloca ptr, align 8
  %4 = alloca ptr, align 8
  %5 = alloca i8, align 1
  store ptr %0, ptr %3, align 8, !tbaa !23
  store ptr %1, ptr %4, align 8, !tbaa !23
  call void @llvm.lifetime.start.p0(i64 1, ptr %5) #5
  %6 = load ptr, ptr %3, align 8, !tbaa !23
  %7 = load i8, ptr %6, align 1, !tbaa !25
  store i8 %7, ptr %5, align 1, !tbaa !25
  %8 = load ptr, ptr %4, align 8, !tbaa !23
  %9 = load i8, ptr %8, align 1, !tbaa !25
  %10 = load ptr, ptr %3, align 8, !tbaa !23
  store i8 %9, ptr %10, align 1, !tbaa !25
  %11 = load i8, ptr %5, align 1, !tbaa !25
  %12 = load ptr, ptr %4, align 8, !tbaa !23
  store i8 %11, ptr %12, align 1, !tbaa !25
  call void @llvm.lifetime.end.p0(i64 1, ptr %5) #5
  ret void
}

; Function Attrs: mustprogress nounwind uwtable
define linkonce_odr dso_local noundef nonnull align 1 dereferenceable(1) ptr @_ZN4pstd6vectorIhNS_3pmr21polymorphic_allocatorIhEEEixEm(ptr noundef nonnull align 8 dereferenceable(32) %0, i64 noundef %1) #7 comdat align 2 {
  %3 = alloca ptr, align 8
  %4 = alloca i64, align 8
  store ptr %0, ptr %3, align 8, !tbaa !228
  store i64 %1, ptr %4, align 8, !tbaa !114
  %5 = load ptr, ptr %3, align 8
  br label %6

6:                                                ; preds = %2
  br label %7

7:                                                ; preds = %6
  %8 = getelementptr inbounds nuw %"class.pstd::vector.28", ptr %5, i32 0, i32 1
  %9 = load ptr, ptr %8, align 8, !tbaa !230
  %10 = load i64, ptr %4, align 8, !tbaa !114
  %11 = getelementptr inbounds nuw i8, ptr %9, i64 %10
  ret ptr %11
}

; Function Attrs: inlinehint mustprogress nounwind uwtable
define linkonce_odr dso_local noundef zeroext i1 @_ZN4pbrt6Is8BitENS_11PixelFormatE(i32 noundef %0) #12 comdat {
  %2 = alloca i32, align 4
  store i32 %0, ptr %2, align 4, !tbaa !31
  %3 = load i32, ptr %2, align 4, !tbaa !31
  %4 = icmp eq i32 %3, 0
  ret i1 %4
}

; Function Attrs: mustprogress uwtable
define linkonce_odr dso_local noundef i32 @_ZNK4pbrt5Image9NChannelsEv(ptr noundef nonnull align 8 dereferenceable(152) %0) #1 comdat align 2 {
  %2 = alloca ptr, align 8
  store ptr %0, ptr %2, align 8, !tbaa !66
  %3 = load ptr, ptr %2, align 8
  %4 = getelementptr inbounds nuw %"class.pbrt::Image", ptr %3, i32 0, i32 2
  %5 = call noundef i64 @_ZNK4pstd6vectorINSt7__cxx1112basic_stringIcSt11char_traitsIcESaIcEEENS_3pmr21polymorphic_allocatorIS6_EEE4sizeEv(ptr noundef nonnull align 8 dereferenceable(32) %4)
  %6 = trunc i64 %5 to i32
  ret i32 %6
}

; Function Attrs: mustprogress uwtable
define linkonce_odr dso_local noundef i64 @_ZNK4pbrt5Image11PixelOffsetENS_6Point2IiEE(ptr noundef nonnull align 8 dereferenceable(152) %0, i64 %1) #1 comdat align 2 {
  %3 = alloca %"class.pbrt::Point2", align 4
  %4 = alloca ptr, align 8
  %5 = getelementptr inbounds nuw %"class.pbrt::Point2", ptr %3, i32 0, i32 0
  store i64 %1, ptr %5, align 4
  store ptr %0, ptr %4, align 8, !tbaa !66
  %6 = load ptr, ptr %4, align 8
  br label %7

7:                                                ; preds = %2
  br label %8

8:                                                ; preds = %7
  %9 = call noundef i32 @_ZNK4pbrt5Image9NChannelsEv(ptr noundef nonnull align 8 dereferenceable(152) %6)
  %10 = getelementptr inbounds nuw %"class.pbrt::Tuple2", ptr %3, i32 0, i32 1
  %11 = load i32, ptr %10, align 4, !tbaa !86
  %12 = getelementptr inbounds nuw %"class.pbrt::Image", ptr %6, i32 0, i32 1
  %13 = getelementptr inbounds nuw %"class.pbrt::Tuple2", ptr %12, i32 0, i32 0
  %14 = load i32, ptr %13, align 4, !tbaa !87
  %15 = mul nsw i32 %11, %14
  %16 = getelementptr inbounds nuw %"class.pbrt::Tuple2", ptr %3, i32 0, i32 0
  %17 = load i32, ptr %16, align 4, !tbaa !87
  %18 = add nsw i32 %15, %17
  %19 = mul nsw i32 %9, %18
  %20 = sext i32 %19 to i64
  ret i64 %20
}

; Function Attrs: mustprogress uwtable
define linkonce_odr dso_local void @_ZN4pbrt6Point2IiEC2Eii(ptr noundef nonnull align 4 dereferenceable(8) %0, i32 noundef %1, i32 noundef %2) unnamed_addr #1 comdat align 2 {
  %4 = alloca ptr, align 8
  %5 = alloca i32, align 4
  %6 = alloca i32, align 4
  store ptr %0, ptr %4, align 8, !tbaa !92
  store i32 %1, ptr %5, align 4, !tbaa !22
  store i32 %2, ptr %6, align 4, !tbaa !22
  %7 = load ptr, ptr %4, align 8
  %8 = load i32, ptr %5, align 4, !tbaa !22
  %9 = load i32, ptr %6, align 4, !tbaa !22
  call void @_ZN4pbrt6Tuple2INS_6Point2EiEC2Eii(ptr noundef nonnull align 4 dereferenceable(8) %7, i32 noundef %8, i32 noundef %9)
  ret void
}

; Function Attrs: mustprogress uwtable
define dso_local void @_ZN4pbrt5Image5FlipYEv(ptr noundef nonnull align 8 dereferenceable(152) %0) #1 align 2 {
  %2 = alloca ptr, align 8
  %3 = alloca i32, align 4
  %4 = alloca i32, align 4
  %5 = alloca i32, align 4
  %6 = alloca i64, align 8
  %7 = alloca %"class.pbrt::Point2", align 4
  %8 = alloca i64, align 8
  %9 = alloca %"class.pbrt::Point2", align 4
  %10 = alloca i32, align 4
  store ptr %0, ptr %2, align 8, !tbaa !66
  %11 = load ptr, ptr %2, align 8
  call void @llvm.lifetime.start.p0(i64 4, ptr %3) #5
  store i32 0, ptr %3, align 4, !tbaa !22
  br label %12

12:                                               ; preds = %112, %1
  %13 = load i32, ptr %3, align 4, !tbaa !22
  %14 = getelementptr inbounds nuw %"class.pbrt::Image", ptr %11, i32 0, i32 1
  %15 = getelementptr inbounds nuw %"class.pbrt::Tuple2", ptr %14, i32 0, i32 1
  %16 = load i32, ptr %15, align 4, !tbaa !86
  %17 = sdiv i32 %16, 2
  %18 = icmp slt i32 %13, %17
  br i1 %18, label %20, label %19

19:                                               ; preds = %12
  store i32 2, ptr %4, align 4
  call void @llvm.lifetime.end.p0(i64 4, ptr %3) #5
  br label %115

20:                                               ; preds = %12
  call void @llvm.lifetime.start.p0(i64 4, ptr %5) #5
  store i32 0, ptr %5, align 4, !tbaa !22
  br label %21

21:                                               ; preds = %108, %20
  %22 = load i32, ptr %5, align 4, !tbaa !22
  %23 = getelementptr inbounds nuw %"class.pbrt::Image", ptr %11, i32 0, i32 1
  %24 = getelementptr inbounds nuw %"class.pbrt::Tuple2", ptr %23, i32 0, i32 0
  %25 = load i32, ptr %24, align 4, !tbaa !87
  %26 = icmp slt i32 %22, %25
  br i1 %26, label %28, label %27

27:                                               ; preds = %21
  store i32 5, ptr %4, align 4
  call void @llvm.lifetime.end.p0(i64 4, ptr %5) #5
  br label %111

28:                                               ; preds = %21
  call void @llvm.lifetime.start.p0(i64 8, ptr %6) #5
  %29 = load i32, ptr %5, align 4, !tbaa !22
  %30 = load i32, ptr %3, align 4, !tbaa !22
  call void @_ZN4pbrt6Point2IiEC2Eii(ptr noundef nonnull align 4 dereferenceable(8) %7, i32 noundef %29, i32 noundef %30)
  %31 = getelementptr inbounds nuw %"class.pbrt::Point2", ptr %7, i32 0, i32 0
  %32 = load i64, ptr %31, align 4
  %33 = call noundef i64 @_ZNK4pbrt5Image11PixelOffsetENS_6Point2IiEE(ptr noundef nonnull align 8 dereferenceable(152) %11, i64 %32)
  store i64 %33, ptr %6, align 8, !tbaa !114
  call void @llvm.lifetime.start.p0(i64 8, ptr %8) #5
  %34 = load i32, ptr %5, align 4, !tbaa !22
  %35 = getelementptr inbounds nuw %"class.pbrt::Image", ptr %11, i32 0, i32 1
  %36 = getelementptr inbounds nuw %"class.pbrt::Tuple2", ptr %35, i32 0, i32 1
  %37 = load i32, ptr %36, align 4, !tbaa !86
  %38 = sub nsw i32 %37, 1
  %39 = load i32, ptr %3, align 4, !tbaa !22
  %40 = sub nsw i32 %38, %39
  call void @_ZN4pbrt6Point2IiEC2Eii(ptr noundef nonnull align 4 dereferenceable(8) %9, i32 noundef %34, i32 noundef %40)
  %41 = getelementptr inbounds nuw %"class.pbrt::Point2", ptr %9, i32 0, i32 0
  %42 = load i64, ptr %41, align 4
  %43 = call noundef i64 @_ZNK4pbrt5Image11PixelOffsetENS_6Point2IiEE(ptr noundef nonnull align 8 dereferenceable(152) %11, i64 %42)
  store i64 %43, ptr %8, align 8, !tbaa !114
  call void @llvm.lifetime.start.p0(i64 4, ptr %10) #5
  store i32 0, ptr %10, align 4, !tbaa !22
  br label %44

44:                                               ; preds = %104, %28
  %45 = load i32, ptr %10, align 4, !tbaa !22
  %46 = call noundef i32 @_ZNK4pbrt5Image9NChannelsEv(ptr noundef nonnull align 8 dereferenceable(152) %11)
  %47 = icmp slt i32 %45, %46
  br i1 %47, label %49, label %48

48:                                               ; preds = %44
  store i32 8, ptr %4, align 4
  call void @llvm.lifetime.end.p0(i64 4, ptr %10) #5
  br label %107

49:                                               ; preds = %44
  %50 = getelementptr inbounds nuw %"class.pbrt::Image", ptr %11, i32 0, i32 0
  %51 = load i32, ptr %50, align 8, !tbaa !68
  %52 = call noundef zeroext i1 @_ZN4pbrt6Is8BitENS_11PixelFormatE(i32 noundef %51)
  br i1 %52, label %53, label %66

53:                                               ; preds = %49
  %54 = getelementptr inbounds nuw %"class.pbrt::Image", ptr %11, i32 0, i32 4
  %55 = load i64, ptr %6, align 8, !tbaa !114
  %56 = load i32, ptr %10, align 4, !tbaa !22
  %57 = sext i32 %56 to i64
  %58 = add i64 %55, %57
  %59 = call noundef nonnull align 1 dereferenceable(1) ptr @_ZN4pstd6vectorIhNS_3pmr21polymorphic_allocatorIhEEEixEm(ptr noundef nonnull align 8 dereferenceable(32) %54, i64 noundef %58)
  %60 = getelementptr inbounds nuw %"class.pbrt::Image", ptr %11, i32 0, i32 4
  %61 = load i64, ptr %8, align 8, !tbaa !114
  %62 = load i32, ptr %10, align 4, !tbaa !22
  %63 = sext i32 %62 to i64
  %64 = add i64 %61, %63
  %65 = call noundef nonnull align 1 dereferenceable(1) ptr @_ZN4pstd6vectorIhNS_3pmr21polymorphic_allocatorIhEEEixEm(ptr noundef nonnull align 8 dereferenceable(32) %60, i64 noundef %64)
  call void @_ZN4pstd4swapIhEEvRT_S2_(ptr noundef nonnull align 1 dereferenceable(1) %59, ptr noundef nonnull align 1 dereferenceable(1) %65)
  br label %103

66:                                               ; preds = %49
  %67 = getelementptr inbounds nuw %"class.pbrt::Image", ptr %11, i32 0, i32 0
  %68 = load i32, ptr %67, align 8, !tbaa !68
  %69 = call noundef zeroext i1 @_ZN4pbrt7Is16BitENS_11PixelFormatE(i32 noundef %68)
  br i1 %69, label %70, label %83

70:                                               ; preds = %66
  %71 = getelementptr inbounds nuw %"class.pbrt::Image", ptr %11, i32 0, i32 5
  %72 = load i64, ptr %6, align 8, !tbaa !114
  %73 = load i32, ptr %10, align 4, !tbaa !22
  %74 = sext i32 %73 to i64
  %75 = add i64 %72, %74
  %76 = call noundef nonnull align 2 dereferenceable(2) ptr @_ZN4pstd6vectorIN4pbrt4HalfENS_3pmr21polymorphic_allocatorIS2_EEEixEm(ptr noundef nonnull align 8 dereferenceable(32) %71, i64 noundef %75)
  %77 = getelementptr inbounds nuw %"class.pbrt::Image", ptr %11, i32 0, i32 5
  %78 = load i64, ptr %8, align 8, !tbaa !114
  %79 = load i32, ptr %10, align 4, !tbaa !22
  %80 = sext i32 %79 to i64
  %81 = add i64 %78, %80
  %82 = call noundef nonnull align 2 dereferenceable(2) ptr @_ZN4pstd6vectorIN4pbrt4HalfENS_3pmr21polymorphic_allocatorIS2_EEEixEm(ptr noundef nonnull align 8 dereferenceable(32) %77, i64 noundef %81)
  call void @_ZN4pstd4swapIN4pbrt4HalfEEEvRT_S4_(ptr noundef nonnull align 2 dereferenceable(2) %76, ptr noundef nonnull align 2 dereferenceable(2) %82)
  br label %102

83:                                               ; preds = %66
  %84 = getelementptr inbounds nuw %"class.pbrt::Image", ptr %11, i32 0, i32 0
  %85 = load i32, ptr %84, align 8, !tbaa !68
  %86 = call noundef zeroext i1 @_ZN4pbrt7Is32BitENS_11PixelFormatE(i32 noundef %85)
  br i1 %86, label %87, label %100

87:                                               ; preds = %83
  %88 = getelementptr inbounds nuw %"class.pbrt::Image", ptr %11, i32 0, i32 6
  %89 = load i64, ptr %6, align 8, !tbaa !114
  %90 = load i32, ptr %10, align 4, !tbaa !22
  %91 = sext i32 %90 to i64
  %92 = add i64 %89, %91
  %93 = call noundef nonnull align 4 dereferenceable(4) ptr @_ZN4pstd6vectorIfNS_3pmr21polymorphic_allocatorIfEEEixEm(ptr noundef nonnull align 8 dereferenceable(32) %88, i64 noundef %92)
  %94 = getelementptr inbounds nuw %"class.pbrt::Image", ptr %11, i32 0, i32 6
  %95 = load i64, ptr %8, align 8, !tbaa !114
  %96 = load i32, ptr %10, align 4, !tbaa !22
  %97 = sext i32 %96 to i64
  %98 = add i64 %95, %97
  %99 = call noundef nonnull align 4 dereferenceable(4) ptr @_ZN4pstd6vectorIfNS_3pmr21polymorphic_allocatorIfEEEixEm(ptr noundef nonnull align 8 dereferenceable(32) %94, i64 noundef %98)
  call void @_ZN4pstd4swapIfEEvRT_S2_(ptr noundef nonnull align 4 dereferenceable(4) %93, ptr noundef nonnull align 4 dereferenceable(4) %99)
  br label %101

100:                                              ; preds = %83
  call void @_ZN4pbrt8LogFatalENS_8LogLevelEPKciS2_(i32 noundef 2, ptr noundef @.str.5, i32 noundef 809, ptr noundef @.str.40) #28
  unreachable

101:                                              ; preds = %87
  br label %102

102:                                              ; preds = %101, %70
  br label %103

103:                                              ; preds = %102, %53
  br label %104

104:                                              ; preds = %103
  %105 = load i32, ptr %10, align 4, !tbaa !22
  %106 = add nsw i32 %105, 1
  store i32 %106, ptr %10, align 4, !tbaa !22
  br label %44, !llvm.loop !389

107:                                              ; preds = %48
  call void @llvm.lifetime.end.p0(i64 8, ptr %8) #5
  call void @llvm.lifetime.end.p0(i64 8, ptr %6) #5
  br label %108

108:                                              ; preds = %107
  %109 = load i32, ptr %5, align 4, !tbaa !22
  %110 = add nsw i32 %109, 1
  store i32 %110, ptr %5, align 4, !tbaa !22
  br label %21, !llvm.loop !390

111:                                              ; preds = %27
  br label %112

112:                                              ; preds = %111
  %113 = load i32, ptr %3, align 4, !tbaa !22
  %114 = add nsw i32 %113, 1
  store i32 %114, ptr %3, align 4, !tbaa !22
  br label %12, !llvm.loop !391

115:                                              ; preds = %19
  ret void
}