; Function Attrs: mustprogress uwtable
define dso_local void @_ZN4pbrt5Image5FlipYEv(ptr noundef nonnull readonly align 8 captures(none) dereferenceable(152) %0) local_unnamed_addr #8 align 2 {
  %2 = getelementptr inbounds nuw i8, ptr %0, i64 4
  %3 = getelementptr inbounds nuw i8, ptr %0, i64 8
  %4 = load i32, ptr %3, align 8, !tbaa !59
  %5 = icmp sgt i32 %4, 1
  br i1 %5, label %.preheader.lr.ph, label %._crit_edge34

.preheader.lr.ph:                                 ; preds = %1
  %6 = getelementptr inbounds nuw i8, ptr %0, i64 40
  %7 = getelementptr inbounds nuw i8, ptr %0, i64 128
  %8 = getelementptr inbounds nuw i8, ptr %0, i64 96
  %9 = getelementptr inbounds nuw i8, ptr %0, i64 64
  %10 = load i32, ptr %2, align 4, !tbaa !60
  %11 = icmp sgt i32 %10, 0
  br i1 %11, label %.preheader, label %._crit_edge34

.preheader:                                       ; preds = %.preheader.lr.ph, %._crit_edge32
  %12 = phi i32 [ %17, %._crit_edge32 ], [ %4, %.preheader.lr.ph ]
  %13 = phi i32 [ %18, %._crit_edge32 ], [ %10, %.preheader.lr.ph ]
  %14 = phi i32 [ %19, %._crit_edge32 ], [ %10, %.preheader.lr.ph ]
  %.02233 = phi i32 [ %20, %._crit_edge32 ], [ 0, %.preheader.lr.ph ]
  %15 = icmp sgt i32 %14, 0
  br i1 %15, label %.lr.ph31, label %._crit_edge32

.lr.ph31:                                         ; preds = %.preheader
  %16 = xor i32 %.02233, -1
  %.pre = load i64, ptr %6, align 8, !tbaa !61
  br label %23

._crit_edge34:                                    ; preds = %._crit_edge32, %.preheader.lr.ph, %1
  ret void

._crit_edge32.loopexit:                           ; preds = %._crit_edge
  %.pre39 = load i32, ptr %3, align 8, !tbaa !59
  br label %._crit_edge32

._crit_edge32:                                    ; preds = %._crit_edge32.loopexit, %.preheader
  %17 = phi i32 [ %.pre39, %._crit_edge32.loopexit ], [ %12, %.preheader ]
  %18 = phi i32 [ %40, %._crit_edge32.loopexit ], [ %13, %.preheader ]
  %19 = phi i32 [ %40, %._crit_edge32.loopexit ], [ %14, %.preheader ]
  %20 = add nuw nsw i32 %.02233, 1
  %21 = sdiv i32 %17, 2
  %22 = icmp slt i32 %20, %21
  br i1 %22, label %.preheader, label %._crit_edge34, !llvm.loop !306

23:                                               ; preds = %.lr.ph31, %._crit_edge
  %24 = phi i32 [ %13, %.lr.ph31 ], [ %40, %._crit_edge ]
  %25 = phi i64 [ %.pre, %.lr.ph31 ], [ %41, %._crit_edge ]
  %26 = phi i64 [ %.pre, %.lr.ph31 ], [ %42, %._crit_edge ]
  %27 = phi i32 [ %14, %.lr.ph31 ], [ %40, %._crit_edge ]
  %.02330 = phi i32 [ 0, %.lr.ph31 ], [ %43, %._crit_edge ]
  %28 = trunc i64 %26 to i32
  %29 = mul nsw i32 %27, %.02233
  %30 = add nsw i32 %29, %.02330
  %31 = mul nsw i32 %30, %28
  %32 = sext i32 %31 to i64
  %33 = load i32, ptr %3, align 8, !tbaa !59
  %34 = add i32 %33, %16
  %35 = mul nsw i32 %34, %27
  %36 = add nsw i32 %35, %.02330
  %37 = mul nsw i32 %36, %28
  %38 = sext i32 %37 to i64
  %39 = icmp sgt i32 %28, 0
  br i1 %39, label %.lr.ph, label %._crit_edge

._crit_edge.loopexit:                             ; preds = %71
  %.pre38 = load i32, ptr %2, align 4, !tbaa !60
  br label %._crit_edge

._crit_edge:                                      ; preds = %._crit_edge.loopexit, %23
  %40 = phi i32 [ %.pre38, %._crit_edge.loopexit ], [ %24, %23 ]
  %41 = phi i64 [ %72, %._crit_edge.loopexit ], [ %25, %23 ]
  %42 = phi i64 [ %72, %._crit_edge.loopexit ], [ %26, %23 ]
  %43 = add nuw nsw i32 %.02330, 1
  %44 = icmp slt i32 %43, %40
  br i1 %44, label %23, label %._crit_edge32.loopexit, !llvm.loop !307

.lr.ph:                                           ; preds = %23, %71
  %45 = phi i64 [ %72, %71 ], [ %25, %23 ]
  %indvars.iv = phi i64 [ %indvars.iv.next, %71 ], [ 0, %23 ]
  %46 = load i32, ptr %0, align 8, !tbaa !40
  switch i32 %46, label %70 [
    i32 0, label %47
    i32 1, label %55
    i32 2, label %62
  ]

47:                                               ; preds = %.lr.ph
  %48 = load ptr, ptr %9, align 8, !tbaa !66
  %49 = getelementptr i8, ptr %48, i64 %32
  %50 = getelementptr i8, ptr %49, i64 %indvars.iv
  %51 = getelementptr i8, ptr %48, i64 %38
  %52 = getelementptr i8, ptr %51, i64 %indvars.iv
  %53 = load i8, ptr %50, align 1, !tbaa !12
  %54 = load i8, ptr %52, align 1, !tbaa !12
  store i8 %54, ptr %50, align 1, !tbaa !12
  store i8 %53, ptr %52, align 1, !tbaa !12
  %.pre37 = load i64, ptr %6, align 8, !tbaa !61
  br label %71

55:                                               ; preds = %.lr.ph
  %56 = load ptr, ptr %8, align 8, !tbaa !70
  %57 = getelementptr %"class.pbrt::Half", ptr %56, i64 %32
  %58 = getelementptr %"class.pbrt::Half", ptr %57, i64 %indvars.iv
  %59 = getelementptr %"class.pbrt::Half", ptr %56, i64 %38
  %60 = getelementptr %"class.pbrt::Half", ptr %59, i64 %indvars.iv
  %.sroa.0.0.copyload.i = load i16, ptr %58, align 2, !tbaa !183
  %61 = load i16, ptr %60, align 2, !tbaa !183
  store i16 %61, ptr %58, align 2, !tbaa !183
  store i16 %.sroa.0.0.copyload.i, ptr %60, align 2, !tbaa !183
  br label %71

62:                                               ; preds = %.lr.ph
  %63 = load ptr, ptr %7, align 8, !tbaa !74
  %64 = getelementptr float, ptr %63, i64 %32
  %65 = getelementptr float, ptr %64, i64 %indvars.iv
  %66 = getelementptr float, ptr %63, i64 %38
  %67 = getelementptr float, ptr %66, i64 %indvars.iv
  %68 = load float, ptr %65, align 4, !tbaa !68
  %69 = load float, ptr %67, align 4, !tbaa !68
  store float %69, ptr %65, align 4, !tbaa !68
  store float %68, ptr %67, align 4, !tbaa !68
  br label %71

70:                                               ; preds = %.lr.ph
  tail call void @_ZN4pbrt8LogFatalENS_8LogLevelEPKciS2_(i32 noundef 2, ptr noundef nonnull @.str.5, i32 noundef 809, ptr noundef nonnull @.str.40) #37
  unreachable

71:                                               ; preds = %47, %62, %55
  %72 = phi i64 [ %.pre37, %47 ], [ %45, %62 ], [ %45, %55 ]
  %indvars.iv.next = add nuw nsw i64 %indvars.iv, 1
  %sext = shl i64 %72, 32
  %73 = ashr exact i64 %sext, 32
  %74 = icmp slt i64 %indvars.iv.next, %73
  br i1 %74, label %.lr.ph, label %._crit_edge.loopexit, !llvm.loop !308
}